; Function Attrs: mustprogress nounwind uwtable
define hidden void @_ZN6Assimp3FBX14LayeredTextureD2Ev(ptr noundef nonnull align 8 dereferenceable(88) %this) unnamed_addr #4 align 2 personality ptr @__gxx_personality_v0 {
entry:
  store ptr getelementptr inbounds ({ [4 x ptr] }, ptr @_ZTVN6Assimp3FBX14LayeredTextureE, i64 0, i32 0, i64 2), ptr %this, align 8
  %textures = getelementptr inbounds i8, ptr %this, i64 56
  %0 = load ptr, ptr %textures, align 8
  %tobool.not.i.i.i = icmp eq ptr %0, null
  br i1 %tobool.not.i.i.i, label %_ZNSt6vectorIPKN6Assimp3FBX7TextureESaIS4_EED2Ev.exit, label %if.then.i.i.i

if.then.i.i.i:                                    ; preds = %entry
  tail call void @_ZdlPv(ptr noundef nonnull %0) #20
  br label %_ZNSt6vectorIPKN6Assimp3FBX7TextureESaIS4_EED2Ev.exit

_ZNSt6vectorIPKN6Assimp3FBX7TextureESaIS4_EED2Ev.exit: ; preds = %entry, %if.then.i.i.i
  store ptr getelementptr inbounds ({ [4 x ptr] }, ptr @_ZTVN6Assimp3FBX6ObjectE, i64 0, i32 0, i64 2), ptr %this, align 8
  %name.i = getelementptr inbounds i8, ptr %this, i64 16
  tail call void @_ZNSt7__cxx1112basic_stringIcSt11char_traitsIcESaIcEED1Ev(ptr noundef nonnull align 8 dereferenceable(32) %name.i) #17
  ret void
}